target datalayout = "e-m:e-p270:32:32-p271:32:32-p272:64:64-i64:64-i128:128-f80:128-n8:16:32:64-S128"
target triple = "x86_64-pc-linux-gnu"

%struct.AVChannelLayout = type { i32, i32, %union.anon.1, ptr }
%union.anon.1 = type { i64 }
%struct.AVFilterFormatsConfig = type { ptr, ptr, ptr, ptr, ptr }
%struct.AVFilterLink = type { ptr, ptr, ptr, ptr, i32, i32, i32, i32, %struct.AVRational, i32, i32, i32, %struct.AVChannelLayout, %struct.AVRational, ptr, i32, %struct.AVFilterFormatsConfig, %struct.AVFilterFormatsConfig }
%struct.AVRational = type { i32, i32 }
%struct.AVFilterContext = type { ptr, ptr, ptr, ptr, ptr, i32, ptr, ptr, i32, ptr, ptr, i32, i32, ptr, ptr, ptr, ptr, i32, ptr, i32, i32 }
%struct.AudioVirtualBassContext = type { ptr, double, double, [3 x double], [3 x double], [2 x double] }

; Function Attrs: nounwind uwtable
define internal i32 @config_input(ptr noundef %0) #0 {
  %2 = alloca ptr, align 8
  %3 = alloca ptr, align 8
  %4 = alloca ptr, align 8
  %5 = alloca double, align 8
  %6 = alloca double, align 8
  %7 = alloca double, align 8
  store ptr %0, ptr %2, align 8, !tbaa !23
  call void @llvm.lifetime.start.p0(i64 8, ptr %3) #5
  %8 = load ptr, ptr %2, align 8, !tbaa !23
  %9 = getelementptr inbounds nuw %struct.AVFilterLink, ptr %8, i32 0, i32 2
  %10 = load ptr, ptr %9, align 8, !tbaa !27
  store ptr %10, ptr %3, align 8, !tbaa !4
  call void @llvm.lifetime.start.p0(i64 8, ptr %4) #5
  %11 = load ptr, ptr %3, align 8, !tbaa !4
  %12 = getelementptr inbounds nuw %struct.AVFilterContext, ptr %11, i32 0, i32 9
  %13 = load ptr, ptr %12, align 8, !tbaa !50
  store ptr %13, ptr %4, align 8, !tbaa !51
  call void @llvm.lifetime.start.p0(i64 8, ptr %5) #5
  store double 7.070000e-01, ptr %5, align 8, !tbaa !53
  call void @llvm.lifetime.start.p0(i64 8, ptr %6) #5
  call void @llvm.lifetime.start.p0(i64 8, ptr %7) #5
  %14 = load ptr, ptr %4, align 8, !tbaa !51
  %15 = getelementptr inbounds nuw %struct.AudioVirtualBassContext, ptr %14, i32 0, i32 1
  %16 = load double, ptr %15, align 8, !tbaa !55
  %17 = fmul nsz double 0x400921FB54442D18, %16
  %18 = load ptr, ptr %2, align 8, !tbaa !23
  %19 = getelementptr inbounds nuw %struct.AVFilterLink, ptr %18, i32 0, i32 11
  %20 = load i32, ptr %19, align 8, !tbaa !57
  %21 = sitofp i32 %20 to double
  %22 = fdiv nsz double %17, %21
  %23 = call nsz double @llvm.tan.f64(double %22)
  store double %23, ptr %6, align 8, !tbaa !53
  store double 0x3FF6A17E5EDE5348, ptr %7, align 8, !tbaa !53
  %24 = load double, ptr %6, align 8, !tbaa !53
  %25 = load double, ptr %6, align 8, !tbaa !53
  %26 = load double, ptr %7, align 8, !tbaa !53
  %27 = fadd nsz double %25, %26
  %28 = call nsz double @llvm.fmuladd.f64(double %24, double %27, double 1.000000e+00)
  %29 = fdiv nsz double 1.000000e+00, %28
  %30 = load ptr, ptr %4, align 8, !tbaa !51
  %31 = getelementptr inbounds nuw %struct.AudioVirtualBassContext, ptr %30, i32 0, i32 3
  %32 = getelementptr inbounds [3 x double], ptr %31, i64 0, i64 0
  store double %29, ptr %32, align 8, !tbaa !53
  %33 = load double, ptr %6, align 8, !tbaa !53
  %34 = load ptr, ptr %4, align 8, !tbaa !51
  %35 = getelementptr inbounds nuw %struct.AudioVirtualBassContext, ptr %34, i32 0, i32 3
  %36 = getelementptr inbounds [3 x double], ptr %35, i64 0, i64 0
  %37 = load double, ptr %36, align 8, !tbaa !53
  %38 = fmul nsz double %33, %37
  %39 = load ptr, ptr %4, align 8, !tbaa !51
  %40 = getelementptr inbounds nuw %struct.AudioVirtualBassContext, ptr %39, i32 0, i32 3
  %41 = getelementptr inbounds [3 x double], ptr %40, i64 0, i64 1
  store double %38, ptr %41, align 8, !tbaa !53
  %42 = load double, ptr %6, align 8, !tbaa !53
  %43 = load ptr, ptr %4, align 8, !tbaa !51
  %44 = getelementptr inbounds nuw %struct.AudioVirtualBassContext, ptr %43, i32 0, i32 3
  %45 = getelementptr inbounds [3 x double], ptr %44, i64 0, i64 1
  %46 = load double, ptr %45, align 8, !tbaa !53
  %47 = fmul nsz double %42, %46
  %48 = load ptr, ptr %4, align 8, !tbaa !51
  %49 = getelementptr inbounds nuw %struct.AudioVirtualBassContext, ptr %48, i32 0, i32 3
  %50 = getelementptr inbounds [3 x double], ptr %49, i64 0, i64 2
  store double %47, ptr %50, align 8, !tbaa !53
  %51 = load ptr, ptr %4, align 8, !tbaa !51
  %52 = getelementptr inbounds nuw %struct.AudioVirtualBassContext, ptr %51, i32 0, i32 4
  %53 = getelementptr inbounds [3 x double], ptr %52, i64 0, i64 0
  store double 0.000000e+00, ptr %53, align 8, !tbaa !53
  %54 = load ptr, ptr %4, align 8, !tbaa !51
  %55 = getelementptr inbounds nuw %struct.AudioVirtualBassContext, ptr %54, i32 0, i32 4
  %56 = getelementptr inbounds [3 x double], ptr %55, i64 0, i64 1
  store double 0.000000e+00, ptr %56, align 8, !tbaa !53
  %57 = load ptr, ptr %4, align 8, !tbaa !51
  %58 = getelementptr inbounds nuw %struct.AudioVirtualBassContext, ptr %57, i32 0, i32 4
  %59 = getelementptr inbounds [3 x double], ptr %58, i64 0, i64 2
  store double 1.000000e+00, ptr %59, align 8, !tbaa !53
  call void @llvm.lifetime.end.p0(i64 8, ptr %7) #5
  call void @llvm.lifetime.end.p0(i64 8, ptr %6) #5
  call void @llvm.lifetime.end.p0(i64 8, ptr %5) #5
  call void @llvm.lifetime.end.p0(i64 8, ptr %4) #5
  call void @llvm.lifetime.end.p0(i64 8, ptr %3) #5
  ret i32 0
}