; Function Attrs: mustprogress nofree norecurse nosync nounwind willreturn memory(readwrite, inaccessiblemem: none) uwtable
define internal noundef i32 @config_input(ptr noundef readonly captures(none) %0) #2 {
  %2 = getelementptr inbounds nuw i8, ptr %0, i64 16
  %3 = load ptr, ptr %2, align 8, !tbaa !19
  %4 = getelementptr inbounds nuw i8, ptr %3, i64 72
  %5 = load ptr, ptr %4, align 8, !tbaa !46
  %6 = getelementptr inbounds nuw i8, ptr %5, i64 8
  %7 = load double, ptr %6, align 8, !tbaa !55
  %8 = fmul nsz double %7, 0x400921FB54442D18
  %9 = getelementptr inbounds nuw i8, ptr %0, i64 64
  %10 = load i32, ptr %9, align 8, !tbaa !56
  %11 = sitofp i32 %10 to double
  %12 = fdiv nsz double %8, %11
  %13 = tail call nsz double @llvm.tan.f64(double %12)
  %14 = fadd nsz double %13, 0x3FF6A17E5EDE5348
  %15 = tail call nsz double @llvm.fmuladd.f64(double %13, double %14, double 1.000000e+00)
  %16 = fdiv nsz double 1.000000e+00, %15
  %17 = getelementptr inbounds nuw i8, ptr %5, i64 24
  store double %16, ptr %17, align 8, !tbaa !52
  %18 = fmul nsz double %13, %16
  %19 = getelementptr inbounds nuw i8, ptr %5, i64 32
  store double %18, ptr %19, align 8, !tbaa !52
  %20 = fmul nsz double %13, %18
  %21 = getelementptr inbounds nuw i8, ptr %5, i64 40
  store double %20, ptr %21, align 8, !tbaa !52
  %22 = getelementptr inbounds nuw i8, ptr %5, i64 48
  %23 = getelementptr inbounds nuw i8, ptr %5, i64 64
  tail call void @llvm.memset.p0.i64(ptr noundef nonnull align 8 dereferenceable(16) %22, i8 0, i64 16, i1 false)
  store double 1.000000e+00, ptr %23, align 8, !tbaa !52
  ret i32 0
}